target datalayout = "e-m:e-p270:32:32-p271:32:32-p272:64:64-i64:64-i128:128-f80:128-n8:16:32:64-S128"
target triple = "x86_64-pc-linux-gnu"

%struct.Walfile = type { ptr, i64, ptr }
%struct.TarMethodFile = type { %struct.Walfile, i64, [512 x i8], i64 }
%union.PGAlignedXLogBlock = type { double, [8184 x i8] }

; Function Attrs: nounwind uwtable
define internal zeroext i1 @tar_write_padding_data(ptr noundef %0, i64 noundef %1) #0 {
  %3 = alloca i1, align 1
  %4 = alloca ptr, align 8
  %5 = alloca i64, align 8
  %6 = alloca %union.PGAlignedXLogBlock, align 4096
  %7 = alloca i64, align 8
  %8 = alloca i64, align 8
  %9 = alloca i64, align 8
  %10 = alloca i32, align 4
  store ptr %0, ptr %4, align 8
  store i64 %1, ptr %5, align 8
  call void @llvm.lifetime.start.p0(i64 8192, ptr %6) #9
  call void @llvm.lifetime.start.p0(i64 8, ptr %7) #9
  %11 = load i64, ptr %5, align 8
  store i64 %11, ptr %7, align 8
  %12 = getelementptr inbounds [8192 x i8], ptr %6, i64 0, i64 0
  call void @llvm.memset.p0.i64(ptr align 4096 %12, i8 0, i64 8192, i1 false)
  br label %13

13:                                               ; preds = %38, %2
  %14 = load i64, ptr %7, align 8
  %15 = icmp ne i64 %14, 0
  br i1 %15, label %16, label %39

16:                                               ; preds = %13
  call void @llvm.lifetime.start.p0(i64 8, ptr %8) #9
  %17 = load i64, ptr %7, align 8
  %18 = icmp ult i64 %17, 8192
  br i1 %18, label %19, label %21

19:                                               ; preds = %16
  %20 = load i64, ptr %7, align 8
  br label %22

21:                                               ; preds = %16
  br label %22

22:                                               ; preds = %21, %19
  %23 = phi i64 [ %20, %19 ], [ 8192, %21 ]
  store i64 %23, ptr %8, align 8
  call void @llvm.lifetime.start.p0(i64 8, ptr %9) #9
  %24 = load ptr, ptr %4, align 8
  %25 = getelementptr inbounds nuw %struct.TarMethodFile, ptr %24, i32 0, i32 0
  %26 = getelementptr inbounds [8192 x i8], ptr %6, i64 0, i64 0
  %27 = load i64, ptr %8, align 8
  %28 = call i64 @tar_write(ptr noundef %25, ptr noundef %26, i64 noundef %27)
  store i64 %28, ptr %9, align 8
  %29 = load i64, ptr %9, align 8
  %30 = icmp slt i64 %29, 0
  br i1 %30, label %31, label %32

31:                                               ; preds = %22
  store i1 false, ptr %3, align 1
  store i32 1, ptr %10, align 4
  br label %36

32:                                               ; preds = %22
  %33 = load i64, ptr %9, align 8
  %34 = load i64, ptr %7, align 8
  %35 = sub i64 %34, %33
  store i64 %35, ptr %7, align 8
  store i32 0, ptr %10, align 4
  br label %36

36:                                               ; preds = %32, %31
  call void @llvm.lifetime.end.p0(i64 8, ptr %9) #9
  call void @llvm.lifetime.end.p0(i64 8, ptr %8) #9
  %37 = load i32, ptr %10, align 4
  switch i32 %37, label %40 [
    i32 0, label %38
  ]

38:                                               ; preds = %36
  br label %13, !llvm.loop !8

39:                                               ; preds = %13
  store i1 true, ptr %3, align 1
  store i32 1, ptr %10, align 4
  br label %40

40:                                               ; preds = %39, %36
  call void @llvm.lifetime.end.p0(i64 8, ptr %7) #9
  call void @llvm.lifetime.end.p0(i64 8192, ptr %6) #9
  %41 = load i1, ptr %3, align 1
  ret i1 %41
}