; Function Attrs: nounwind uwtable
define internal fastcc noundef zeroext i1 @tar_write_padding_data(ptr noundef captures(none) %0, i64 noundef range(i64 1, 0) %1) unnamed_addr #0 {
  %3 = alloca %union.PGAlignedXLogBlock, align 4096
  call void @llvm.lifetime.start.p0(i64 8192, ptr nonnull %3) #12
  call void @llvm.memset.p0.i64(ptr noundef nonnull align 4096 dereferenceable(8192) %3, i8 0, i64 8192, i1 false)
  br label %4

4:                                                ; preds = %5, %2
  %.011 = phi i64 [ %1, %2 ], [ %9, %5 ]
  %.not = icmp eq i64 %.011, 0
  br i1 %.not, label %10, label %5

5:                                                ; preds = %4
  %6 = call i64 @llvm.umin.i64(i64 %.011, i64 8192)
  %7 = call i64 @tar_write(ptr noundef %0, ptr noundef nonnull %3, i64 noundef %6)
  %8 = icmp sgt i64 %7, -1
  %9 = sub i64 %.011, %7
  br i1 %8, label %4, label %10, !llvm.loop !6

10:                                               ; preds = %4, %5
  call void @llvm.lifetime.end.p0(i64 8192, ptr nonnull %3) #12
  ret i1 %.not
}